ARM GAS  C:\Users\User\AppData\Local\Temp\ccanVayv.s 			page 1


   1              		.syntax unified
   2              		.cpu cortex-m0
   3              		.fpu softvfp
   4              		.eabi_attribute 20, 1
   5              		.eabi_attribute 21, 1
   6              		.eabi_attribute 23, 3
   7              		.eabi_attribute 24, 1
   8              		.eabi_attribute 25, 1
   9              		.eabi_attribute 26, 1
  10              		.eabi_attribute 30, 1
  11              		.eabi_attribute 34, 0
  12              		.eabi_attribute 18, 4
  13              		.thumb
  14              		.syntax unified
  15              		.file	"buzzerFuncs.c"
  16              		.text
  17              	.Ltext0:
  18              		.cfi_sections	.debug_frame
  19              		.section	.text.readBuzzers,"ax",%progbits
  20              		.align	2
  21              		.global	readBuzzers
  22              		.code	16
  23              		.thumb_func
  24              		.type	readBuzzers, %function
  25              	readBuzzers:
  26              	.LFB32:
  27              		.file 1 "buzzerFuncs.c"
   1:buzzerFuncs.c **** /* ========================================
   2:buzzerFuncs.c ****  *
   3:buzzerFuncs.c ****  * Copyright YOUR COMPANY, THE YEAR
   4:buzzerFuncs.c ****  * All Rights Reserved
   5:buzzerFuncs.c ****  * UNPUBLISHED, LICENSED SOFTWARE.
   6:buzzerFuncs.c ****  *
   7:buzzerFuncs.c ****  * CONFIDENTIAL AND PROPRIETARY INFORMATION
   8:buzzerFuncs.c ****  * WHICH IS THE PROPERTY OF your company.
   9:buzzerFuncs.c ****  *
  10:buzzerFuncs.c ****  * ========================================
  11:buzzerFuncs.c **** */
  12:buzzerFuncs.c **** 
  13:buzzerFuncs.c **** 
  14:buzzerFuncs.c **** #include "project.h"
  15:buzzerFuncs.c **** #include "buzzerFuncs.h"
  16:buzzerFuncs.c **** int buttonOn = 0;
  17:buzzerFuncs.c **** 
  18:buzzerFuncs.c **** int readBuzzers(int testMode)
  19:buzzerFuncs.c **** {
  28              		.loc 1 19 0
  29              		.cfi_startproc
  30              		@ args = 0, pretend = 0, frame = 0
  31              		@ frame_needed = 0, uses_anonymous_args = 0
  32              	.LVL0:
  33 0000 10B5     		push	{r4, lr}
  34              		.cfi_def_cfa_offset 8
  35              		.cfi_offset 4, -8
  36              		.cfi_offset 14, -4
  37 0002 0400     		movs	r4, r0
  20:buzzerFuncs.c ****         if (!Button_1_Read() && !buttonOn)
ARM GAS  C:\Users\User\AppData\Local\Temp\ccanVayv.s 			page 2


  38              		.loc 1 20 0
  39 0004 FFF7FEFF 		bl	Button_1_Read
  40              	.LVL1:
  41 0008 0028     		cmp	r0, #0
  42 000a 37D1     		bne	.L2
  43              		.loc 1 20 0 is_stmt 0 discriminator 1
  44 000c CF4B     		ldr	r3, .L45
  45 000e 1B68     		ldr	r3, [r3]
  46 0010 002B     		cmp	r3, #0
  47 0012 33D1     		bne	.L2
  21:buzzerFuncs.c ****         {
  22:buzzerFuncs.c ****             LCD_Char_1_ClearDisplay();
  48              		.loc 1 22 0 is_stmt 1
  49 0014 0130     		adds	r0, r0, #1
  50 0016 FFF7FEFF 		bl	LCD_Char_1_WriteControl
  51              	.LVL2:
  23:buzzerFuncs.c ****             LCD_Char_1_Position(0u,5u);
  52              		.loc 1 23 0
  53 001a 0521     		movs	r1, #5
  54 001c 0020     		movs	r0, #0
  55 001e FFF7FEFF 		bl	LCD_Char_1_Position
  56              	.LVL3:
  24:buzzerFuncs.c ****             LCD_Char_1_PrintString("Team A");
  57              		.loc 1 24 0
  58 0022 CB48     		ldr	r0, .L45+4
  59 0024 FFF7FEFF 		bl	LCD_Char_1_PrintString
  60              	.LVL4:
  25:buzzerFuncs.c ****             LCD_Char_1_Position(1u,0u);
  61              		.loc 1 25 0
  62 0028 0021     		movs	r1, #0
  63 002a 0120     		movs	r0, #1
  64 002c FFF7FEFF 		bl	LCD_Char_1_Position
  65              	.LVL5:
  26:buzzerFuncs.c ****             LCD_Char_1_PrintString("Player 1 Buzzed");
  66              		.loc 1 26 0
  67 0030 C848     		ldr	r0, .L45+8
  68 0032 FFF7FEFF 		bl	LCD_Char_1_PrintString
  69              	.LVL6:
  27:buzzerFuncs.c ****             LED_1_Write(1);
  70              		.loc 1 27 0
  71 0036 0120     		movs	r0, #1
  72 0038 FFF7FEFF 		bl	LED_1_Write
  73              	.LVL7:
  28:buzzerFuncs.c ****             buttonOn = 1;
  74              		.loc 1 28 0
  75 003c 0122     		movs	r2, #1
  76 003e C34B     		ldr	r3, .L45
  77 0040 1A60     		str	r2, [r3]
  78              	.LVL8:
  79              	.LBB2:
  29:buzzerFuncs.c ****            for (int i=0; i<400; i++)
  80              		.loc 1 29 0
  81 0042 0024     		movs	r4, #0
  82              	.LVL9:
  83 0044 11E0     		b	.L3
  84              	.LVL10:
  85              	.L6:
ARM GAS  C:\Users\User\AppData\Local\Temp\ccanVayv.s 			page 3


  30:buzzerFuncs.c ****             {
  31:buzzerFuncs.c ****                 if (!Reset_Read())
  86              		.loc 1 31 0
  87 0046 FFF7FEFF 		bl	Reset_Read
  88              	.LVL11:
  89 004a 0028     		cmp	r0, #0
  90 004c 02D1     		bne	.L4
  32:buzzerFuncs.c ****                 {
  33:buzzerFuncs.c ****                     buttonOn = 0;
  91              		.loc 1 33 0
  92 004e 0022     		movs	r2, #0
  93 0050 BE4B     		ldr	r3, .L45
  94 0052 1A60     		str	r2, [r3]
  95              	.L4:
  34:buzzerFuncs.c ****                 }
  35:buzzerFuncs.c ****                 if (buttonOn)
  96              		.loc 1 35 0
  97 0054 BD4B     		ldr	r3, .L45
  98 0056 1B68     		ldr	r3, [r3]
  99 0058 002B     		cmp	r3, #0
 100 005a 05D0     		beq	.L5
  36:buzzerFuncs.c ****                 {
  37:buzzerFuncs.c ****                     Buzzer_1_Write(1);
 101              		.loc 1 37 0
 102 005c 0120     		movs	r0, #1
 103 005e FFF7FEFF 		bl	Buzzer_1_Write
 104              	.LVL12:
  38:buzzerFuncs.c ****                     CyDelay(1);
 105              		.loc 1 38 0
 106 0062 0120     		movs	r0, #1
 107 0064 FFF7FEFF 		bl	CyDelay
 108              	.LVL13:
 109              	.L5:
  29:buzzerFuncs.c ****             {
 110              		.loc 1 29 0 discriminator 2
 111 0068 0134     		adds	r4, r4, #1
 112              	.LVL14:
 113              	.L3:
  29:buzzerFuncs.c ****             {
 114              		.loc 1 29 0 is_stmt 0 discriminator 1
 115 006a 9023     		movs	r3, #144
 116 006c FF33     		adds	r3, r3, #255
 117 006e 9C42     		cmp	r4, r3
 118 0070 E9DD     		ble	.L6
 119              	.LBE2:
  39:buzzerFuncs.c ****                 }
  40:buzzerFuncs.c ****             }
  41:buzzerFuncs.c ****             Buzzer_1_Write(0);
 120              		.loc 1 41 0 is_stmt 1
 121 0072 0020     		movs	r0, #0
 122 0074 FFF7FEFF 		bl	Buzzer_1_Write
 123              	.LVL15:
  42:buzzerFuncs.c ****             return 1;
 124              		.loc 1 42 0
 125 0078 0120     		movs	r0, #1
 126 007a E1E1     		b	.L7
 127              	.LVL16:
ARM GAS  C:\Users\User\AppData\Local\Temp\ccanVayv.s 			page 4


 128              	.L2:
  43:buzzerFuncs.c ****         }
  44:buzzerFuncs.c ****         if (!Button_2_Read() && !buttonOn)
 129              		.loc 1 44 0
 130 007c FFF7FEFF 		bl	Button_2_Read
 131              	.LVL17:
 132 0080 0028     		cmp	r0, #0
 133 0082 37D1     		bne	.L8
 134              		.loc 1 44 0 is_stmt 0 discriminator 1
 135 0084 B14B     		ldr	r3, .L45
 136 0086 1B68     		ldr	r3, [r3]
 137 0088 002B     		cmp	r3, #0
 138 008a 33D1     		bne	.L8
  45:buzzerFuncs.c ****         {
  46:buzzerFuncs.c ****             LCD_Char_1_ClearDisplay();
 139              		.loc 1 46 0 is_stmt 1
 140 008c 0130     		adds	r0, r0, #1
 141 008e FFF7FEFF 		bl	LCD_Char_1_WriteControl
 142              	.LVL18:
  47:buzzerFuncs.c ****             LCD_Char_1_Position(0u,5u);
 143              		.loc 1 47 0
 144 0092 0521     		movs	r1, #5
 145 0094 0020     		movs	r0, #0
 146 0096 FFF7FEFF 		bl	LCD_Char_1_Position
 147              	.LVL19:
  48:buzzerFuncs.c ****             LCD_Char_1_PrintString("Team A");
 148              		.loc 1 48 0
 149 009a AD48     		ldr	r0, .L45+4
 150 009c FFF7FEFF 		bl	LCD_Char_1_PrintString
 151              	.LVL20:
  49:buzzerFuncs.c ****             LCD_Char_1_Position(1u,0u);
 152              		.loc 1 49 0
 153 00a0 0021     		movs	r1, #0
 154 00a2 0120     		movs	r0, #1
 155 00a4 FFF7FEFF 		bl	LCD_Char_1_Position
 156              	.LVL21:
  50:buzzerFuncs.c ****             LCD_Char_1_PrintString("Player 2 Buzzed");
 157              		.loc 1 50 0
 158 00a8 AB48     		ldr	r0, .L45+12
 159 00aa FFF7FEFF 		bl	LCD_Char_1_PrintString
 160              	.LVL22:
  51:buzzerFuncs.c ****             LED_2_Write(1);
 161              		.loc 1 51 0
 162 00ae 0120     		movs	r0, #1
 163 00b0 FFF7FEFF 		bl	LED_2_Write
 164              	.LVL23:
  52:buzzerFuncs.c ****             buttonOn = 1;
 165              		.loc 1 52 0
 166 00b4 0122     		movs	r2, #1
 167 00b6 A54B     		ldr	r3, .L45
 168 00b8 1A60     		str	r2, [r3]
 169              	.LVL24:
 170              	.LBB3:
  53:buzzerFuncs.c ****             for (int i=0; i<400; i++)
 171              		.loc 1 53 0
 172 00ba 0024     		movs	r4, #0
 173              	.LVL25:
ARM GAS  C:\Users\User\AppData\Local\Temp\ccanVayv.s 			page 5


 174 00bc 11E0     		b	.L9
 175              	.LVL26:
 176              	.L12:
  54:buzzerFuncs.c ****             {
  55:buzzerFuncs.c ****                 if (!Reset_Read())
 177              		.loc 1 55 0
 178 00be FFF7FEFF 		bl	Reset_Read
 179              	.LVL27:
 180 00c2 0028     		cmp	r0, #0
 181 00c4 02D1     		bne	.L10
  56:buzzerFuncs.c ****                 {
  57:buzzerFuncs.c ****                     buttonOn = 0;
 182              		.loc 1 57 0
 183 00c6 0022     		movs	r2, #0
 184 00c8 A04B     		ldr	r3, .L45
 185 00ca 1A60     		str	r2, [r3]
 186              	.L10:
  58:buzzerFuncs.c ****                 }
  59:buzzerFuncs.c ****                 if (buttonOn)
 187              		.loc 1 59 0
 188 00cc 9F4B     		ldr	r3, .L45
 189 00ce 1B68     		ldr	r3, [r3]
 190 00d0 002B     		cmp	r3, #0
 191 00d2 05D0     		beq	.L11
  60:buzzerFuncs.c ****                 {
  61:buzzerFuncs.c ****                     Buzzer_1_Write(1);
 192              		.loc 1 61 0
 193 00d4 0120     		movs	r0, #1
 194 00d6 FFF7FEFF 		bl	Buzzer_1_Write
 195              	.LVL28:
  62:buzzerFuncs.c ****                     CyDelay(1);
 196              		.loc 1 62 0
 197 00da 0120     		movs	r0, #1
 198 00dc FFF7FEFF 		bl	CyDelay
 199              	.LVL29:
 200              	.L11:
  53:buzzerFuncs.c ****             {
 201              		.loc 1 53 0 discriminator 2
 202 00e0 0134     		adds	r4, r4, #1
 203              	.LVL30:
 204              	.L9:
  53:buzzerFuncs.c ****             {
 205              		.loc 1 53 0 is_stmt 0 discriminator 1
 206 00e2 9023     		movs	r3, #144
 207 00e4 FF33     		adds	r3, r3, #255
 208 00e6 9C42     		cmp	r4, r3
 209 00e8 E9DD     		ble	.L12
 210              	.LBE3:
  63:buzzerFuncs.c ****                 }
  64:buzzerFuncs.c ****             }
  65:buzzerFuncs.c ****             Buzzer_1_Write(0);
 211              		.loc 1 65 0 is_stmt 1
 212 00ea 0020     		movs	r0, #0
 213 00ec FFF7FEFF 		bl	Buzzer_1_Write
 214              	.LVL31:
  66:buzzerFuncs.c ****             return 2;
 215              		.loc 1 66 0
ARM GAS  C:\Users\User\AppData\Local\Temp\ccanVayv.s 			page 6


 216 00f0 0220     		movs	r0, #2
 217 00f2 A5E1     		b	.L7
 218              	.LVL32:
 219              	.L8:
  67:buzzerFuncs.c ****         }
  68:buzzerFuncs.c ****         if (!Button_3_Read() && !buttonOn)
 220              		.loc 1 68 0
 221 00f4 FFF7FEFF 		bl	Button_3_Read
 222              	.LVL33:
 223 00f8 0028     		cmp	r0, #0
 224 00fa 37D1     		bne	.L13
 225              		.loc 1 68 0 is_stmt 0 discriminator 1
 226 00fc 934B     		ldr	r3, .L45
 227 00fe 1B68     		ldr	r3, [r3]
 228 0100 002B     		cmp	r3, #0
 229 0102 33D1     		bne	.L13
  69:buzzerFuncs.c ****         {
  70:buzzerFuncs.c ****             LCD_Char_1_ClearDisplay();
 230              		.loc 1 70 0 is_stmt 1
 231 0104 0130     		adds	r0, r0, #1
 232 0106 FFF7FEFF 		bl	LCD_Char_1_WriteControl
 233              	.LVL34:
  71:buzzerFuncs.c ****             LCD_Char_1_Position(0u,5u);
 234              		.loc 1 71 0
 235 010a 0521     		movs	r1, #5
 236 010c 0020     		movs	r0, #0
 237 010e FFF7FEFF 		bl	LCD_Char_1_Position
 238              	.LVL35:
  72:buzzerFuncs.c ****             LCD_Char_1_PrintString("Team A");
 239              		.loc 1 72 0
 240 0112 8F48     		ldr	r0, .L45+4
 241 0114 FFF7FEFF 		bl	LCD_Char_1_PrintString
 242              	.LVL36:
  73:buzzerFuncs.c ****             LCD_Char_1_Position(1u,0u);
 243              		.loc 1 73 0
 244 0118 0021     		movs	r1, #0
 245 011a 0120     		movs	r0, #1
 246 011c FFF7FEFF 		bl	LCD_Char_1_Position
 247              	.LVL37:
  74:buzzerFuncs.c ****             LCD_Char_1_PrintString("Player 3 Buzzed");
 248              		.loc 1 74 0
 249 0120 8E48     		ldr	r0, .L45+16
 250 0122 FFF7FEFF 		bl	LCD_Char_1_PrintString
 251              	.LVL38:
  75:buzzerFuncs.c ****             LED_3_Write(1);
 252              		.loc 1 75 0
 253 0126 0120     		movs	r0, #1
 254 0128 FFF7FEFF 		bl	LED_3_Write
 255              	.LVL39:
  76:buzzerFuncs.c ****             buttonOn = 1;
 256              		.loc 1 76 0
 257 012c 0122     		movs	r2, #1
 258 012e 874B     		ldr	r3, .L45
 259 0130 1A60     		str	r2, [r3]
 260              	.LVL40:
 261              	.LBB4:
  77:buzzerFuncs.c ****             for (int i=0; i<400; i++)
ARM GAS  C:\Users\User\AppData\Local\Temp\ccanVayv.s 			page 7


 262              		.loc 1 77 0
 263 0132 0024     		movs	r4, #0
 264              	.LVL41:
 265 0134 11E0     		b	.L14
 266              	.LVL42:
 267              	.L17:
  78:buzzerFuncs.c ****             {
  79:buzzerFuncs.c ****                 if (!Reset_Read())
 268              		.loc 1 79 0
 269 0136 FFF7FEFF 		bl	Reset_Read
 270              	.LVL43:
 271 013a 0028     		cmp	r0, #0
 272 013c 02D1     		bne	.L15
  80:buzzerFuncs.c ****                 {
  81:buzzerFuncs.c ****                     buttonOn = 0;
 273              		.loc 1 81 0
 274 013e 0022     		movs	r2, #0
 275 0140 824B     		ldr	r3, .L45
 276 0142 1A60     		str	r2, [r3]
 277              	.L15:
  82:buzzerFuncs.c ****                 }
  83:buzzerFuncs.c ****                 if (buttonOn)
 278              		.loc 1 83 0
 279 0144 814B     		ldr	r3, .L45
 280 0146 1B68     		ldr	r3, [r3]
 281 0148 002B     		cmp	r3, #0
 282 014a 05D0     		beq	.L16
  84:buzzerFuncs.c ****                 {
  85:buzzerFuncs.c ****                     Buzzer_1_Write(1);
 283              		.loc 1 85 0
 284 014c 0120     		movs	r0, #1
 285 014e FFF7FEFF 		bl	Buzzer_1_Write
 286              	.LVL44:
  86:buzzerFuncs.c ****                     CyDelay(1);
 287              		.loc 1 86 0
 288 0152 0120     		movs	r0, #1
 289 0154 FFF7FEFF 		bl	CyDelay
 290              	.LVL45:
 291              	.L16:
  77:buzzerFuncs.c ****             {
 292              		.loc 1 77 0 discriminator 2
 293 0158 0134     		adds	r4, r4, #1
 294              	.LVL46:
 295              	.L14:
  77:buzzerFuncs.c ****             {
 296              		.loc 1 77 0 is_stmt 0 discriminator 1
 297 015a 9023     		movs	r3, #144
 298 015c FF33     		adds	r3, r3, #255
 299 015e 9C42     		cmp	r4, r3
 300 0160 E9DD     		ble	.L17
 301              	.LBE4:
  87:buzzerFuncs.c ****                 }
  88:buzzerFuncs.c ****             }
  89:buzzerFuncs.c ****             Buzzer_1_Write(0);
 302              		.loc 1 89 0 is_stmt 1
 303 0162 0020     		movs	r0, #0
 304 0164 FFF7FEFF 		bl	Buzzer_1_Write
ARM GAS  C:\Users\User\AppData\Local\Temp\ccanVayv.s 			page 8


 305              	.LVL47:
  90:buzzerFuncs.c ****             return 3;
 306              		.loc 1 90 0
 307 0168 0320     		movs	r0, #3
 308 016a 69E1     		b	.L7
 309              	.LVL48:
 310              	.L13:
  91:buzzerFuncs.c ****         }
  92:buzzerFuncs.c ****         if (!Button_4_Read() && !buttonOn)
 311              		.loc 1 92 0
 312 016c FFF7FEFF 		bl	Button_4_Read
 313              	.LVL49:
 314 0170 0028     		cmp	r0, #0
 315 0172 37D1     		bne	.L18
 316              		.loc 1 92 0 is_stmt 0 discriminator 1
 317 0174 754B     		ldr	r3, .L45
 318 0176 1B68     		ldr	r3, [r3]
 319 0178 002B     		cmp	r3, #0
 320 017a 33D1     		bne	.L18
  93:buzzerFuncs.c ****         {
  94:buzzerFuncs.c ****             LCD_Char_1_ClearDisplay();
 321              		.loc 1 94 0 is_stmt 1
 322 017c 0130     		adds	r0, r0, #1
 323 017e FFF7FEFF 		bl	LCD_Char_1_WriteControl
 324              	.LVL50:
  95:buzzerFuncs.c ****             LCD_Char_1_Position(0u,5u);
 325              		.loc 1 95 0
 326 0182 0521     		movs	r1, #5
 327 0184 0020     		movs	r0, #0
 328 0186 FFF7FEFF 		bl	LCD_Char_1_Position
 329              	.LVL51:
  96:buzzerFuncs.c ****             LCD_Char_1_PrintString("Team A");
 330              		.loc 1 96 0
 331 018a 7148     		ldr	r0, .L45+4
 332 018c FFF7FEFF 		bl	LCD_Char_1_PrintString
 333              	.LVL52:
  97:buzzerFuncs.c ****             LCD_Char_1_Position(1u,0u);
 334              		.loc 1 97 0
 335 0190 0021     		movs	r1, #0
 336 0192 0120     		movs	r0, #1
 337 0194 FFF7FEFF 		bl	LCD_Char_1_Position
 338              	.LVL53:
  98:buzzerFuncs.c ****             LCD_Char_1_PrintString("Player 4 Buzzed");
 339              		.loc 1 98 0
 340 0198 7148     		ldr	r0, .L45+20
 341 019a FFF7FEFF 		bl	LCD_Char_1_PrintString
 342              	.LVL54:
  99:buzzerFuncs.c ****             LED_4_Write(1);
 343              		.loc 1 99 0
 344 019e 0120     		movs	r0, #1
 345 01a0 FFF7FEFF 		bl	LED_4_Write
 346              	.LVL55:
 100:buzzerFuncs.c ****             buttonOn = 1;
 347              		.loc 1 100 0
 348 01a4 0122     		movs	r2, #1
 349 01a6 694B     		ldr	r3, .L45
 350 01a8 1A60     		str	r2, [r3]
ARM GAS  C:\Users\User\AppData\Local\Temp\ccanVayv.s 			page 9


 351              	.LVL56:
 352              	.LBB5:
 101:buzzerFuncs.c ****             for (int i=0; i<400; i++)
 353              		.loc 1 101 0
 354 01aa 0024     		movs	r4, #0
 355              	.LVL57:
 356 01ac 11E0     		b	.L19
 357              	.LVL58:
 358              	.L22:
 102:buzzerFuncs.c ****             {
 103:buzzerFuncs.c ****                 if (!Reset_Read())
 359              		.loc 1 103 0
 360 01ae FFF7FEFF 		bl	Reset_Read
 361              	.LVL59:
 362 01b2 0028     		cmp	r0, #0
 363 01b4 02D1     		bne	.L20
 104:buzzerFuncs.c ****                 {
 105:buzzerFuncs.c ****                     buttonOn = 0;
 364              		.loc 1 105 0
 365 01b6 0022     		movs	r2, #0
 366 01b8 644B     		ldr	r3, .L45
 367 01ba 1A60     		str	r2, [r3]
 368              	.L20:
 106:buzzerFuncs.c ****                 }
 107:buzzerFuncs.c ****                 if (buttonOn)
 369              		.loc 1 107 0
 370 01bc 634B     		ldr	r3, .L45
 371 01be 1B68     		ldr	r3, [r3]
 372 01c0 002B     		cmp	r3, #0
 373 01c2 05D0     		beq	.L21
 108:buzzerFuncs.c ****                 {
 109:buzzerFuncs.c ****                     Buzzer_1_Write(1);
 374              		.loc 1 109 0
 375 01c4 0120     		movs	r0, #1
 376 01c6 FFF7FEFF 		bl	Buzzer_1_Write
 377              	.LVL60:
 110:buzzerFuncs.c ****                     CyDelay(1);
 378              		.loc 1 110 0
 379 01ca 0120     		movs	r0, #1
 380 01cc FFF7FEFF 		bl	CyDelay
 381              	.LVL61:
 382              	.L21:
 101:buzzerFuncs.c ****             {
 383              		.loc 1 101 0 discriminator 2
 384 01d0 0134     		adds	r4, r4, #1
 385              	.LVL62:
 386              	.L19:
 101:buzzerFuncs.c ****             {
 387              		.loc 1 101 0 is_stmt 0 discriminator 1
 388 01d2 9023     		movs	r3, #144
 389 01d4 FF33     		adds	r3, r3, #255
 390 01d6 9C42     		cmp	r4, r3
 391 01d8 E9DD     		ble	.L22
 392              	.LBE5:
 111:buzzerFuncs.c ****                 }
 112:buzzerFuncs.c ****             }
 113:buzzerFuncs.c **** //            CyDelay(400);
ARM GAS  C:\Users\User\AppData\Local\Temp\ccanVayv.s 			page 10


 114:buzzerFuncs.c ****             Buzzer_1_Write(0);
 393              		.loc 1 114 0 is_stmt 1
 394 01da 0020     		movs	r0, #0
 395 01dc FFF7FEFF 		bl	Buzzer_1_Write
 396              	.LVL63:
 115:buzzerFuncs.c ****             return 4;
 397              		.loc 1 115 0
 398 01e0 0420     		movs	r0, #4
 399 01e2 2DE1     		b	.L7
 400              	.LVL64:
 401              	.L18:
 116:buzzerFuncs.c ****         }
 117:buzzerFuncs.c ****         if (!Button_5_Read() && !buttonOn)
 402              		.loc 1 117 0
 403 01e4 FFF7FEFF 		bl	Button_5_Read
 404              	.LVL65:
 405 01e8 0028     		cmp	r0, #0
 406 01ea 37D1     		bne	.L23
 407              		.loc 1 117 0 is_stmt 0 discriminator 1
 408 01ec 574B     		ldr	r3, .L45
 409 01ee 1B68     		ldr	r3, [r3]
 410 01f0 002B     		cmp	r3, #0
 411 01f2 33D1     		bne	.L23
 118:buzzerFuncs.c ****         {
 119:buzzerFuncs.c ****             LCD_Char_1_ClearDisplay();
 412              		.loc 1 119 0 is_stmt 1
 413 01f4 0130     		adds	r0, r0, #1
 414 01f6 FFF7FEFF 		bl	LCD_Char_1_WriteControl
 415              	.LVL66:
 120:buzzerFuncs.c ****             LCD_Char_1_Position(0u,5u);
 416              		.loc 1 120 0
 417 01fa 0521     		movs	r1, #5
 418 01fc 0020     		movs	r0, #0
 419 01fe FFF7FEFF 		bl	LCD_Char_1_Position
 420              	.LVL67:
 121:buzzerFuncs.c ****             LCD_Char_1_PrintString("Team B");
 421              		.loc 1 121 0
 422 0202 5848     		ldr	r0, .L45+24
 423 0204 FFF7FEFF 		bl	LCD_Char_1_PrintString
 424              	.LVL68:
 122:buzzerFuncs.c ****             LCD_Char_1_Position(1u,0u);
 425              		.loc 1 122 0
 426 0208 0021     		movs	r1, #0
 427 020a 0120     		movs	r0, #1
 428 020c FFF7FEFF 		bl	LCD_Char_1_Position
 429              	.LVL69:
 123:buzzerFuncs.c ****             LCD_Char_1_PrintString("Player 5 Buzzed");
 430              		.loc 1 123 0
 431 0210 5548     		ldr	r0, .L45+28
 432 0212 FFF7FEFF 		bl	LCD_Char_1_PrintString
 433              	.LVL70:
 124:buzzerFuncs.c ****             LED_5_Write(1);
 434              		.loc 1 124 0
 435 0216 0120     		movs	r0, #1
 436 0218 FFF7FEFF 		bl	LED_5_Write
 437              	.LVL71:
 125:buzzerFuncs.c ****             buttonOn = 1;
ARM GAS  C:\Users\User\AppData\Local\Temp\ccanVayv.s 			page 11


 438              		.loc 1 125 0
 439 021c 0122     		movs	r2, #1
 440 021e 4B4B     		ldr	r3, .L45
 441 0220 1A60     		str	r2, [r3]
 442              	.LVL72:
 443              	.LBB6:
 126:buzzerFuncs.c ****            for (int i=0; i<400; i++)
 444              		.loc 1 126 0
 445 0222 0024     		movs	r4, #0
 446              	.LVL73:
 447 0224 11E0     		b	.L24
 448              	.LVL74:
 449              	.L27:
 127:buzzerFuncs.c ****             {
 128:buzzerFuncs.c ****                 if (!Reset_Read())
 450              		.loc 1 128 0
 451 0226 FFF7FEFF 		bl	Reset_Read
 452              	.LVL75:
 453 022a 0028     		cmp	r0, #0
 454 022c 02D1     		bne	.L25
 129:buzzerFuncs.c ****                 {
 130:buzzerFuncs.c ****                     buttonOn = 0;
 455              		.loc 1 130 0
 456 022e 0022     		movs	r2, #0
 457 0230 464B     		ldr	r3, .L45
 458 0232 1A60     		str	r2, [r3]
 459              	.L25:
 131:buzzerFuncs.c ****                 }
 132:buzzerFuncs.c ****                 if (buttonOn)
 460              		.loc 1 132 0
 461 0234 454B     		ldr	r3, .L45
 462 0236 1B68     		ldr	r3, [r3]
 463 0238 002B     		cmp	r3, #0
 464 023a 05D0     		beq	.L26
 133:buzzerFuncs.c ****                 {
 134:buzzerFuncs.c ****                     Buzzer_2_Write(1);
 465              		.loc 1 134 0
 466 023c 0120     		movs	r0, #1
 467 023e FFF7FEFF 		bl	Buzzer_2_Write
 468              	.LVL76:
 135:buzzerFuncs.c ****                     CyDelay(1);
 469              		.loc 1 135 0
 470 0242 0120     		movs	r0, #1
 471 0244 FFF7FEFF 		bl	CyDelay
 472              	.LVL77:
 473              	.L26:
 126:buzzerFuncs.c ****             {
 474              		.loc 1 126 0 discriminator 2
 475 0248 0134     		adds	r4, r4, #1
 476              	.LVL78:
 477              	.L24:
 126:buzzerFuncs.c ****             {
 478              		.loc 1 126 0 is_stmt 0 discriminator 1
 479 024a 9023     		movs	r3, #144
 480 024c FF33     		adds	r3, r3, #255
 481 024e 9C42     		cmp	r4, r3
 482 0250 E9DD     		ble	.L27
ARM GAS  C:\Users\User\AppData\Local\Temp\ccanVayv.s 			page 12


 483              	.LBE6:
 136:buzzerFuncs.c ****                 }
 137:buzzerFuncs.c ****             }
 138:buzzerFuncs.c ****             Buzzer_2_Write(0);
 484              		.loc 1 138 0 is_stmt 1
 485 0252 0020     		movs	r0, #0
 486 0254 FFF7FEFF 		bl	Buzzer_2_Write
 487              	.LVL79:
 139:buzzerFuncs.c ****             return 5;
 488              		.loc 1 139 0
 489 0258 0520     		movs	r0, #5
 490 025a F1E0     		b	.L7
 491              	.LVL80:
 492              	.L23:
 140:buzzerFuncs.c ****         }
 141:buzzerFuncs.c ****         if (!Button_6_Read() && !buttonOn)
 493              		.loc 1 141 0
 494 025c FFF7FEFF 		bl	Button_6_Read
 495              	.LVL81:
 496 0260 0028     		cmp	r0, #0
 497 0262 37D1     		bne	.L28
 498              		.loc 1 141 0 is_stmt 0 discriminator 1
 499 0264 394B     		ldr	r3, .L45
 500 0266 1B68     		ldr	r3, [r3]
 501 0268 002B     		cmp	r3, #0
 502 026a 33D1     		bne	.L28
 142:buzzerFuncs.c ****         {
 143:buzzerFuncs.c ****             LCD_Char_1_ClearDisplay();
 503              		.loc 1 143 0 is_stmt 1
 504 026c 0130     		adds	r0, r0, #1
 505 026e FFF7FEFF 		bl	LCD_Char_1_WriteControl
 506              	.LVL82:
 144:buzzerFuncs.c ****             LCD_Char_1_Position(0u,5u);
 507              		.loc 1 144 0
 508 0272 0521     		movs	r1, #5
 509 0274 0020     		movs	r0, #0
 510 0276 FFF7FEFF 		bl	LCD_Char_1_Position
 511              	.LVL83:
 145:buzzerFuncs.c ****             LCD_Char_1_PrintString("Team B");
 512              		.loc 1 145 0
 513 027a 3A48     		ldr	r0, .L45+24
 514 027c FFF7FEFF 		bl	LCD_Char_1_PrintString
 515              	.LVL84:
 146:buzzerFuncs.c ****             LCD_Char_1_Position(1u,0u);
 516              		.loc 1 146 0
 517 0280 0021     		movs	r1, #0
 518 0282 0120     		movs	r0, #1
 519 0284 FFF7FEFF 		bl	LCD_Char_1_Position
 520              	.LVL85:
 147:buzzerFuncs.c ****             LCD_Char_1_PrintString("Player 6 Buzzed");
 521              		.loc 1 147 0
 522 0288 3848     		ldr	r0, .L45+32
 523 028a FFF7FEFF 		bl	LCD_Char_1_PrintString
 524              	.LVL86:
 148:buzzerFuncs.c ****             LED_6_Write(1);
 525              		.loc 1 148 0
 526 028e 0120     		movs	r0, #1
ARM GAS  C:\Users\User\AppData\Local\Temp\ccanVayv.s 			page 13


 527 0290 FFF7FEFF 		bl	LED_6_Write
 528              	.LVL87:
 149:buzzerFuncs.c ****             buttonOn = 1;
 529              		.loc 1 149 0
 530 0294 0122     		movs	r2, #1
 531 0296 2D4B     		ldr	r3, .L45
 532 0298 1A60     		str	r2, [r3]
 533              	.LVL88:
 534              	.LBB7:
 150:buzzerFuncs.c ****             for (int i=0; i<400; i++)
 535              		.loc 1 150 0
 536 029a 0024     		movs	r4, #0
 537              	.LVL89:
 538 029c 11E0     		b	.L29
 539              	.LVL90:
 540              	.L32:
 151:buzzerFuncs.c ****             {
 152:buzzerFuncs.c ****                 if (!Reset_Read())
 541              		.loc 1 152 0
 542 029e FFF7FEFF 		bl	Reset_Read
 543              	.LVL91:
 544 02a2 0028     		cmp	r0, #0
 545 02a4 02D1     		bne	.L30
 153:buzzerFuncs.c ****                 {
 154:buzzerFuncs.c ****                     buttonOn = 0;
 546              		.loc 1 154 0
 547 02a6 0022     		movs	r2, #0
 548 02a8 284B     		ldr	r3, .L45
 549 02aa 1A60     		str	r2, [r3]
 550              	.L30:
 155:buzzerFuncs.c ****                 }
 156:buzzerFuncs.c ****                 if (buttonOn)
 551              		.loc 1 156 0
 552 02ac 274B     		ldr	r3, .L45
 553 02ae 1B68     		ldr	r3, [r3]
 554 02b0 002B     		cmp	r3, #0
 555 02b2 05D0     		beq	.L31
 157:buzzerFuncs.c ****                 {
 158:buzzerFuncs.c ****                     Buzzer_2_Write(1);
 556              		.loc 1 158 0
 557 02b4 0120     		movs	r0, #1
 558 02b6 FFF7FEFF 		bl	Buzzer_2_Write
 559              	.LVL92:
 159:buzzerFuncs.c ****                     CyDelay(1);
 560              		.loc 1 159 0
 561 02ba 0120     		movs	r0, #1
 562 02bc FFF7FEFF 		bl	CyDelay
 563              	.LVL93:
 564              	.L31:
 150:buzzerFuncs.c ****             {
 565              		.loc 1 150 0 discriminator 2
 566 02c0 0134     		adds	r4, r4, #1
 567              	.LVL94:
 568              	.L29:
 150:buzzerFuncs.c ****             {
 569              		.loc 1 150 0 is_stmt 0 discriminator 1
 570 02c2 9023     		movs	r3, #144
ARM GAS  C:\Users\User\AppData\Local\Temp\ccanVayv.s 			page 14


 571 02c4 FF33     		adds	r3, r3, #255
 572 02c6 9C42     		cmp	r4, r3
 573 02c8 E9DD     		ble	.L32
 574              	.LBE7:
 160:buzzerFuncs.c ****                 }
 161:buzzerFuncs.c ****             }
 162:buzzerFuncs.c ****             Buzzer_2_Write(0);
 575              		.loc 1 162 0 is_stmt 1
 576 02ca 0020     		movs	r0, #0
 577 02cc FFF7FEFF 		bl	Buzzer_2_Write
 578              	.LVL95:
 163:buzzerFuncs.c ****             return 6;
 579              		.loc 1 163 0
 580 02d0 0620     		movs	r0, #6
 581 02d2 B5E0     		b	.L7
 582              	.LVL96:
 583              	.L28:
 164:buzzerFuncs.c ****         }
 165:buzzerFuncs.c ****         if (!Button_7_Read() && !buttonOn)
 584              		.loc 1 165 0
 585 02d4 FFF7FEFF 		bl	Button_7_Read
 586              	.LVL97:
 587 02d8 0028     		cmp	r0, #0
 588 02da 4BD1     		bne	.L33
 589              		.loc 1 165 0 is_stmt 0 discriminator 1
 590 02dc 1B4B     		ldr	r3, .L45
 591 02de 1B68     		ldr	r3, [r3]
 592 02e0 002B     		cmp	r3, #0
 593 02e2 47D1     		bne	.L33
 166:buzzerFuncs.c ****         {
 167:buzzerFuncs.c ****             LCD_Char_1_ClearDisplay();
 594              		.loc 1 167 0 is_stmt 1
 595 02e4 0130     		adds	r0, r0, #1
 596 02e6 FFF7FEFF 		bl	LCD_Char_1_WriteControl
 597              	.LVL98:
 168:buzzerFuncs.c ****             LCD_Char_1_Position(0u,5u);
 598              		.loc 1 168 0
 599 02ea 0521     		movs	r1, #5
 600 02ec 0020     		movs	r0, #0
 601 02ee FFF7FEFF 		bl	LCD_Char_1_Position
 602              	.LVL99:
 169:buzzerFuncs.c ****             LCD_Char_1_PrintString("Team B");
 603              		.loc 1 169 0
 604 02f2 1C48     		ldr	r0, .L45+24
 605 02f4 FFF7FEFF 		bl	LCD_Char_1_PrintString
 606              	.LVL100:
 170:buzzerFuncs.c ****             LCD_Char_1_Position(1u,0u);
 607              		.loc 1 170 0
 608 02f8 0021     		movs	r1, #0
 609 02fa 0120     		movs	r0, #1
 610 02fc FFF7FEFF 		bl	LCD_Char_1_Position
 611              	.LVL101:
 171:buzzerFuncs.c ****             LCD_Char_1_PrintString("Player 7 Buzzed");
 612              		.loc 1 171 0
 613 0300 1B48     		ldr	r0, .L45+36
 614 0302 FFF7FEFF 		bl	LCD_Char_1_PrintString
 615              	.LVL102:
ARM GAS  C:\Users\User\AppData\Local\Temp\ccanVayv.s 			page 15


 172:buzzerFuncs.c ****             LED_7_Write(1);
 616              		.loc 1 172 0
 617 0306 0120     		movs	r0, #1
 618 0308 FFF7FEFF 		bl	LED_7_Write
 619              	.LVL103:
 173:buzzerFuncs.c ****             buttonOn = 1;
 620              		.loc 1 173 0
 621 030c 0122     		movs	r2, #1
 622 030e 0F4B     		ldr	r3, .L45
 623 0310 1A60     		str	r2, [r3]
 624              	.LVL104:
 625              	.LBB8:
 174:buzzerFuncs.c ****             for (int i=0; i<400; i++)
 626              		.loc 1 174 0
 627 0312 0024     		movs	r4, #0
 628              	.LVL105:
 629 0314 11E0     		b	.L34
 630              	.LVL106:
 631              	.L37:
 175:buzzerFuncs.c ****             {
 176:buzzerFuncs.c ****                 if (!Reset_Read())
 632              		.loc 1 176 0
 633 0316 FFF7FEFF 		bl	Reset_Read
 634              	.LVL107:
 635 031a 0028     		cmp	r0, #0
 636 031c 02D1     		bne	.L35
 177:buzzerFuncs.c ****                 {
 178:buzzerFuncs.c ****                     buttonOn = 0;
 637              		.loc 1 178 0
 638 031e 0022     		movs	r2, #0
 639 0320 0A4B     		ldr	r3, .L45
 640 0322 1A60     		str	r2, [r3]
 641              	.L35:
 179:buzzerFuncs.c ****                 }
 180:buzzerFuncs.c ****                 if (buttonOn)
 642              		.loc 1 180 0
 643 0324 094B     		ldr	r3, .L45
 644 0326 1B68     		ldr	r3, [r3]
 645 0328 002B     		cmp	r3, #0
 646 032a 05D0     		beq	.L36
 181:buzzerFuncs.c ****                 {
 182:buzzerFuncs.c ****                     Buzzer_2_Write(1);
 647              		.loc 1 182 0
 648 032c 0120     		movs	r0, #1
 649 032e FFF7FEFF 		bl	Buzzer_2_Write
 650              	.LVL108:
 183:buzzerFuncs.c ****                     CyDelay(1);
 651              		.loc 1 183 0
 652 0332 0120     		movs	r0, #1
 653 0334 FFF7FEFF 		bl	CyDelay
 654              	.LVL109:
 655              	.L36:
 174:buzzerFuncs.c ****             {
 656              		.loc 1 174 0 discriminator 2
 657 0338 0134     		adds	r4, r4, #1
 658              	.LVL110:
 659              	.L34:
ARM GAS  C:\Users\User\AppData\Local\Temp\ccanVayv.s 			page 16


 174:buzzerFuncs.c ****             {
 660              		.loc 1 174 0 is_stmt 0 discriminator 1
 661 033a 9023     		movs	r3, #144
 662 033c FF33     		adds	r3, r3, #255
 663 033e 9C42     		cmp	r4, r3
 664 0340 E9DD     		ble	.L37
 665              	.LBE8:
 184:buzzerFuncs.c ****                 }
 185:buzzerFuncs.c ****             }
 186:buzzerFuncs.c ****             Buzzer_2_Write(0);
 666              		.loc 1 186 0 is_stmt 1
 667 0342 0020     		movs	r0, #0
 668 0344 FFF7FEFF 		bl	Buzzer_2_Write
 669              	.LVL111:
 187:buzzerFuncs.c ****             return 7;
 670              		.loc 1 187 0
 671 0348 0720     		movs	r0, #7
 672 034a 79E0     		b	.L7
 673              	.L46:
 674              		.align	2
 675              	.L45:
 676 034c 00000000 		.word	.LANCHOR0
 677 0350 00000000 		.word	.LC1
 678 0354 08000000 		.word	.LC3
 679 0358 18000000 		.word	.LC5
 680 035c 28000000 		.word	.LC7
 681 0360 38000000 		.word	.LC9
 682 0364 48000000 		.word	.LC11
 683 0368 50000000 		.word	.LC13
 684 036c 60000000 		.word	.LC15
 685 0370 70000000 		.word	.LC17
 686              	.LVL112:
 687              	.L33:
 188:buzzerFuncs.c ****         }
 189:buzzerFuncs.c ****         if (!Button_8_Read() && !buttonOn)
 688              		.loc 1 189 0
 689 0374 FFF7FEFF 		bl	Button_8_Read
 690              	.LVL113:
 691 0378 0028     		cmp	r0, #0
 692 037a 37D1     		bne	.L38
 693              		.loc 1 189 0 is_stmt 0 discriminator 1
 694 037c 314B     		ldr	r3, .L47
 695 037e 1B68     		ldr	r3, [r3]
 696 0380 002B     		cmp	r3, #0
 697 0382 33D1     		bne	.L38
 190:buzzerFuncs.c ****         {
 191:buzzerFuncs.c ****             LCD_Char_1_ClearDisplay();
 698              		.loc 1 191 0 is_stmt 1
 699 0384 0130     		adds	r0, r0, #1
 700 0386 FFF7FEFF 		bl	LCD_Char_1_WriteControl
 701              	.LVL114:
 192:buzzerFuncs.c ****             LCD_Char_1_Position(0u,5u);
 702              		.loc 1 192 0
 703 038a 0521     		movs	r1, #5
 704 038c 0020     		movs	r0, #0
 705 038e FFF7FEFF 		bl	LCD_Char_1_Position
 706              	.LVL115:
ARM GAS  C:\Users\User\AppData\Local\Temp\ccanVayv.s 			page 17


 193:buzzerFuncs.c ****             LCD_Char_1_PrintString("Team B");
 707              		.loc 1 193 0
 708 0392 2D48     		ldr	r0, .L47+4
 709 0394 FFF7FEFF 		bl	LCD_Char_1_PrintString
 710              	.LVL116:
 194:buzzerFuncs.c ****             LCD_Char_1_Position(1u,0u);
 711              		.loc 1 194 0
 712 0398 0021     		movs	r1, #0
 713 039a 0120     		movs	r0, #1
 714 039c FFF7FEFF 		bl	LCD_Char_1_Position
 715              	.LVL117:
 195:buzzerFuncs.c ****             LCD_Char_1_PrintString("Player 8 Buzzed");
 716              		.loc 1 195 0
 717 03a0 2A48     		ldr	r0, .L47+8
 718 03a2 FFF7FEFF 		bl	LCD_Char_1_PrintString
 719              	.LVL118:
 196:buzzerFuncs.c ****             LED_8_Write(1);
 720              		.loc 1 196 0
 721 03a6 0120     		movs	r0, #1
 722 03a8 FFF7FEFF 		bl	LED_8_Write
 723              	.LVL119:
 197:buzzerFuncs.c ****             buttonOn = 1;
 724              		.loc 1 197 0
 725 03ac 0122     		movs	r2, #1
 726 03ae 254B     		ldr	r3, .L47
 727 03b0 1A60     		str	r2, [r3]
 728              	.LVL120:
 729              	.LBB9:
 198:buzzerFuncs.c ****             for (int i=0; i<400; i++)
 730              		.loc 1 198 0
 731 03b2 0024     		movs	r4, #0
 732              	.LVL121:
 733 03b4 11E0     		b	.L39
 734              	.LVL122:
 735              	.L42:
 199:buzzerFuncs.c ****             {
 200:buzzerFuncs.c ****                 if (!Reset_Read())
 736              		.loc 1 200 0
 737 03b6 FFF7FEFF 		bl	Reset_Read
 738              	.LVL123:
 739 03ba 0028     		cmp	r0, #0
 740 03bc 02D1     		bne	.L40
 201:buzzerFuncs.c ****                 {
 202:buzzerFuncs.c ****                     buttonOn = 0;
 741              		.loc 1 202 0
 742 03be 0022     		movs	r2, #0
 743 03c0 204B     		ldr	r3, .L47
 744 03c2 1A60     		str	r2, [r3]
 745              	.L40:
 203:buzzerFuncs.c ****                 }
 204:buzzerFuncs.c ****                 if (buttonOn)
 746              		.loc 1 204 0
 747 03c4 1F4B     		ldr	r3, .L47
 748 03c6 1B68     		ldr	r3, [r3]
 749 03c8 002B     		cmp	r3, #0
 750 03ca 05D0     		beq	.L41
 205:buzzerFuncs.c ****                 {
ARM GAS  C:\Users\User\AppData\Local\Temp\ccanVayv.s 			page 18


 206:buzzerFuncs.c ****                     Buzzer_2_Write(1);
 751              		.loc 1 206 0
 752 03cc 0120     		movs	r0, #1
 753 03ce FFF7FEFF 		bl	Buzzer_2_Write
 754              	.LVL124:
 207:buzzerFuncs.c ****                     CyDelay(1);
 755              		.loc 1 207 0
 756 03d2 0120     		movs	r0, #1
 757 03d4 FFF7FEFF 		bl	CyDelay
 758              	.LVL125:
 759              	.L41:
 198:buzzerFuncs.c ****             {
 760              		.loc 1 198 0 discriminator 2
 761 03d8 0134     		adds	r4, r4, #1
 762              	.LVL126:
 763              	.L39:
 198:buzzerFuncs.c ****             {
 764              		.loc 1 198 0 is_stmt 0 discriminator 1
 765 03da 9023     		movs	r3, #144
 766 03dc FF33     		adds	r3, r3, #255
 767 03de 9C42     		cmp	r4, r3
 768 03e0 E9DD     		ble	.L42
 769              	.LBE9:
 208:buzzerFuncs.c ****                 }
 209:buzzerFuncs.c ****             }
 210:buzzerFuncs.c ****             Buzzer_2_Write(0);
 770              		.loc 1 210 0 is_stmt 1
 771 03e2 0020     		movs	r0, #0
 772 03e4 FFF7FEFF 		bl	Buzzer_2_Write
 773              	.LVL127:
 211:buzzerFuncs.c ****             return 8;
 774              		.loc 1 211 0
 775 03e8 0820     		movs	r0, #8
 776 03ea 29E0     		b	.L7
 777              	.LVL128:
 778              	.L38:
 212:buzzerFuncs.c ****         }
 213:buzzerFuncs.c ****         
 214:buzzerFuncs.c ****         if (!Reset_Read())
 779              		.loc 1 214 0
 780 03ec FFF7FEFF 		bl	Reset_Read
 781              	.LVL129:
 782 03f0 0028     		cmp	r0, #0
 783 03f2 24D1     		bne	.L44
 215:buzzerFuncs.c ****         {
 216:buzzerFuncs.c ****             if (!testMode)
 784              		.loc 1 216 0
 785 03f4 002C     		cmp	r4, #0
 786 03f6 05D1     		bne	.L43
 217:buzzerFuncs.c ****             {
 218:buzzerFuncs.c ****                 LCD_Char_1_ClearDisplay();
 787              		.loc 1 218 0
 788 03f8 0130     		adds	r0, r0, #1
 789 03fa FFF7FEFF 		bl	LCD_Char_1_WriteControl
 790              	.LVL130:
 219:buzzerFuncs.c ****                 LCD_Char_1_PrintString("Awaiting Answer");
 791              		.loc 1 219 0
ARM GAS  C:\Users\User\AppData\Local\Temp\ccanVayv.s 			page 19


 792 03fe 1448     		ldr	r0, .L47+12
 793 0400 FFF7FEFF 		bl	LCD_Char_1_PrintString
 794              	.LVL131:
 795              	.L43:
 220:buzzerFuncs.c ****             }
 221:buzzerFuncs.c ****             LED_1_Write(0);
 796              		.loc 1 221 0
 797 0404 0020     		movs	r0, #0
 798 0406 FFF7FEFF 		bl	LED_1_Write
 799              	.LVL132:
 222:buzzerFuncs.c ****             LED_2_Write(0);
 800              		.loc 1 222 0
 801 040a 0020     		movs	r0, #0
 802 040c FFF7FEFF 		bl	LED_2_Write
 803              	.LVL133:
 223:buzzerFuncs.c ****             LED_3_Write(0);
 804              		.loc 1 223 0
 805 0410 0020     		movs	r0, #0
 806 0412 FFF7FEFF 		bl	LED_3_Write
 807              	.LVL134:
 224:buzzerFuncs.c ****             LED_4_Write(0);
 808              		.loc 1 224 0
 809 0416 0020     		movs	r0, #0
 810 0418 FFF7FEFF 		bl	LED_4_Write
 811              	.LVL135:
 225:buzzerFuncs.c ****             LED_5_Write(0);
 812              		.loc 1 225 0
 813 041c 0020     		movs	r0, #0
 814 041e FFF7FEFF 		bl	LED_5_Write
 815              	.LVL136:
 226:buzzerFuncs.c ****             LED_6_Write(0);
 816              		.loc 1 226 0
 817 0422 0020     		movs	r0, #0
 818 0424 FFF7FEFF 		bl	LED_6_Write
 819              	.LVL137:
 227:buzzerFuncs.c ****             LED_7_Write(0);
 820              		.loc 1 227 0
 821 0428 0020     		movs	r0, #0
 822 042a FFF7FEFF 		bl	LED_7_Write
 823              	.LVL138:
 228:buzzerFuncs.c ****             LED_8_Write(0);
 824              		.loc 1 228 0
 825 042e 0020     		movs	r0, #0
 826 0430 FFF7FEFF 		bl	LED_8_Write
 827              	.LVL139:
 229:buzzerFuncs.c ****             buttonOn = 0;
 828              		.loc 1 229 0
 829 0434 0022     		movs	r2, #0
 830 0436 034B     		ldr	r3, .L47
 831 0438 1A60     		str	r2, [r3]
 230:buzzerFuncs.c ****             return 9;
 832              		.loc 1 230 0
 833 043a 0920     		movs	r0, #9
 834 043c 00E0     		b	.L7
 835              	.L44:
 231:buzzerFuncs.c ****         }    
 232:buzzerFuncs.c ****         return 0;
ARM GAS  C:\Users\User\AppData\Local\Temp\ccanVayv.s 			page 20


 836              		.loc 1 232 0
 837 043e 0020     		movs	r0, #0
 838              	.LVL140:
 839              	.L7:
 233:buzzerFuncs.c **** }
 840              		.loc 1 233 0
 841              		@ sp needed
 842 0440 10BD     		pop	{r4, pc}
 843              	.L48:
 844 0442 C046     		.align	2
 845              	.L47:
 846 0444 00000000 		.word	.LANCHOR0
 847 0448 48000000 		.word	.LC11
 848 044c 80000000 		.word	.LC19
 849 0450 90000000 		.word	.LC21
 850              		.cfi_endproc
 851              	.LFE32:
 852              		.size	readBuzzers, .-readBuzzers
 853              		.section	.text.testBuzzers,"ax",%progbits
 854              		.align	2
 855              		.global	testBuzzers
 856              		.code	16
 857              		.thumb_func
 858              		.type	testBuzzers, %function
 859              	testBuzzers:
 860              	.LFB33:
 234:buzzerFuncs.c **** 
 235:buzzerFuncs.c **** void testBuzzers()
 236:buzzerFuncs.c **** {
 861              		.loc 1 236 0
 862              		.cfi_startproc
 863              		@ args = 0, pretend = 0, frame = 0
 864              		@ frame_needed = 0, uses_anonymous_args = 0
 865 0000 10B5     		push	{r4, lr}
 866              		.cfi_def_cfa_offset 8
 867              		.cfi_offset 4, -8
 868              		.cfi_offset 14, -4
 237:buzzerFuncs.c ****     LCD_Char_1_ClearDisplay();
 869              		.loc 1 237 0
 870 0002 0120     		movs	r0, #1
 871 0004 FFF7FEFF 		bl	LCD_Char_1_WriteControl
 872              	.LVL141:
 238:buzzerFuncs.c ****     LCD_Char_1_PrintString("Test Buzzer 1");
 873              		.loc 1 238 0
 874 0008 6148     		ldr	r0, .L74
 875 000a FFF7FEFF 		bl	LCD_Char_1_PrintString
 876              	.LVL142:
 239:buzzerFuncs.c **** //    readBuzzers();
 240:buzzerFuncs.c ****     int buttonPushed = readBuzzers(1);
 877              		.loc 1 240 0
 878 000e 0120     		movs	r0, #1
 879 0010 FFF7FEFF 		bl	readBuzzers
 880              	.LVL143:
 241:buzzerFuncs.c ****     while (buttonPushed != 1)
 881              		.loc 1 241 0
 882 0014 0AE0     		b	.L50
 883              	.L52:
ARM GAS  C:\Users\User\AppData\Local\Temp\ccanVayv.s 			page 21


 242:buzzerFuncs.c ****     {
 243:buzzerFuncs.c ****         if (buttonPushed != 0 && buttonPushed != 1)
 884              		.loc 1 243 0
 885 0016 0128     		cmp	r0, #1
 886 0018 05D9     		bls	.L51
 244:buzzerFuncs.c ****         {
 245:buzzerFuncs.c ****             LCD_Char_1_ClearDisplay();
 887              		.loc 1 245 0
 888 001a 0120     		movs	r0, #1
 889              	.LVL144:
 890 001c FFF7FEFF 		bl	LCD_Char_1_WriteControl
 891              	.LVL145:
 246:buzzerFuncs.c ****             LCD_Char_1_PrintString("Test Buzzer 1");
 892              		.loc 1 246 0
 893 0020 5B48     		ldr	r0, .L74
 894 0022 FFF7FEFF 		bl	LCD_Char_1_PrintString
 895              	.LVL146:
 896              	.L51:
 247:buzzerFuncs.c ****         }
 248:buzzerFuncs.c ****         buttonPushed = readBuzzers(1);
 897              		.loc 1 248 0
 898 0026 0120     		movs	r0, #1
 899 0028 FFF7FEFF 		bl	readBuzzers
 900              	.LVL147:
 901              	.L50:
 241:buzzerFuncs.c ****     {
 902              		.loc 1 241 0
 903 002c 0128     		cmp	r0, #1
 904 002e F2D1     		bne	.L52
 249:buzzerFuncs.c ****     }
 250:buzzerFuncs.c ****     
 251:buzzerFuncs.c ****     LCD_Char_1_ClearDisplay();
 905              		.loc 1 251 0
 906 0030 FFF7FEFF 		bl	LCD_Char_1_WriteControl
 907              	.LVL148:
 252:buzzerFuncs.c ****     LCD_Char_1_PrintString("Test Buzzer 2");
 908              		.loc 1 252 0
 909 0034 5748     		ldr	r0, .L74+4
 910 0036 FFF7FEFF 		bl	LCD_Char_1_PrintString
 911              	.LVL149:
 253:buzzerFuncs.c **** //    readBuzzers();
 254:buzzerFuncs.c ****     buttonPushed = readBuzzers(1);
 912              		.loc 1 254 0
 913 003a 0120     		movs	r0, #1
 914 003c FFF7FEFF 		bl	readBuzzers
 915              	.LVL150:
 255:buzzerFuncs.c ****     while (buttonPushed != 2)
 916              		.loc 1 255 0
 917 0040 0CE0     		b	.L53
 918              	.L55:
 256:buzzerFuncs.c ****     {
 257:buzzerFuncs.c ****         if (buttonPushed != 0 && buttonPushed != 2)
 919              		.loc 1 257 0
 920 0042 0028     		cmp	r0, #0
 921 0044 07D0     		beq	.L54
 922              		.loc 1 257 0 is_stmt 0 discriminator 1
 923 0046 0228     		cmp	r0, #2
ARM GAS  C:\Users\User\AppData\Local\Temp\ccanVayv.s 			page 22


 924 0048 05D0     		beq	.L54
 258:buzzerFuncs.c ****         {
 259:buzzerFuncs.c ****             LCD_Char_1_ClearDisplay();
 925              		.loc 1 259 0 is_stmt 1
 926 004a 0120     		movs	r0, #1
 927              	.LVL151:
 928 004c FFF7FEFF 		bl	LCD_Char_1_WriteControl
 929              	.LVL152:
 260:buzzerFuncs.c ****             LCD_Char_1_PrintString("Test Buzzer 2");
 930              		.loc 1 260 0
 931 0050 5048     		ldr	r0, .L74+4
 932 0052 FFF7FEFF 		bl	LCD_Char_1_PrintString
 933              	.LVL153:
 934              	.L54:
 261:buzzerFuncs.c ****         }
 262:buzzerFuncs.c ****         buttonPushed = readBuzzers(1);
 935              		.loc 1 262 0
 936 0056 0120     		movs	r0, #1
 937 0058 FFF7FEFF 		bl	readBuzzers
 938              	.LVL154:
 939              	.L53:
 255:buzzerFuncs.c ****     {
 940              		.loc 1 255 0
 941 005c 0228     		cmp	r0, #2
 942 005e F0D1     		bne	.L55
 263:buzzerFuncs.c ****     }
 264:buzzerFuncs.c ****     
 265:buzzerFuncs.c ****     LCD_Char_1_ClearDisplay();
 943              		.loc 1 265 0
 944 0060 0138     		subs	r0, r0, #1
 945              	.LVL155:
 946 0062 FFF7FEFF 		bl	LCD_Char_1_WriteControl
 947              	.LVL156:
 266:buzzerFuncs.c ****     LCD_Char_1_PrintString("Test Buzzer 3");
 948              		.loc 1 266 0
 949 0066 4C48     		ldr	r0, .L74+8
 950 0068 FFF7FEFF 		bl	LCD_Char_1_PrintString
 951              	.LVL157:
 267:buzzerFuncs.c ****     buttonPushed = readBuzzers(1);
 952              		.loc 1 267 0
 953 006c 0120     		movs	r0, #1
 954 006e FFF7FEFF 		bl	readBuzzers
 955              	.LVL158:
 268:buzzerFuncs.c ****     while (buttonPushed != 3)
 956              		.loc 1 268 0
 957 0072 0CE0     		b	.L56
 958              	.L58:
 269:buzzerFuncs.c ****     {
 270:buzzerFuncs.c ****         if (buttonPushed != 0 && buttonPushed != 3)
 959              		.loc 1 270 0
 960 0074 0028     		cmp	r0, #0
 961 0076 07D0     		beq	.L57
 962              		.loc 1 270 0 is_stmt 0 discriminator 1
 963 0078 0328     		cmp	r0, #3
 964 007a 05D0     		beq	.L57
 271:buzzerFuncs.c ****         {
 272:buzzerFuncs.c ****             LCD_Char_1_ClearDisplay();
ARM GAS  C:\Users\User\AppData\Local\Temp\ccanVayv.s 			page 23


 965              		.loc 1 272 0 is_stmt 1
 966 007c 0120     		movs	r0, #1
 967              	.LVL159:
 968 007e FFF7FEFF 		bl	LCD_Char_1_WriteControl
 969              	.LVL160:
 273:buzzerFuncs.c ****             LCD_Char_1_PrintString("Test Buzzer 3");
 970              		.loc 1 273 0
 971 0082 4548     		ldr	r0, .L74+8
 972 0084 FFF7FEFF 		bl	LCD_Char_1_PrintString
 973              	.LVL161:
 974              	.L57:
 274:buzzerFuncs.c ****         }
 275:buzzerFuncs.c ****         buttonPushed = readBuzzers(1);
 975              		.loc 1 275 0
 976 0088 0120     		movs	r0, #1
 977 008a FFF7FEFF 		bl	readBuzzers
 978              	.LVL162:
 979              	.L56:
 268:buzzerFuncs.c ****     {
 980              		.loc 1 268 0
 981 008e 0328     		cmp	r0, #3
 982 0090 F0D1     		bne	.L58
 276:buzzerFuncs.c ****     }
 277:buzzerFuncs.c ****     
 278:buzzerFuncs.c ****     LCD_Char_1_ClearDisplay();
 983              		.loc 1 278 0
 984 0092 0238     		subs	r0, r0, #2
 985              	.LVL163:
 986 0094 FFF7FEFF 		bl	LCD_Char_1_WriteControl
 987              	.LVL164:
 279:buzzerFuncs.c ****     LCD_Char_1_PrintString("Test Buzzer 4");
 988              		.loc 1 279 0
 989 0098 4048     		ldr	r0, .L74+12
 990 009a FFF7FEFF 		bl	LCD_Char_1_PrintString
 991              	.LVL165:
 280:buzzerFuncs.c ****     buttonPushed = readBuzzers(1);
 992              		.loc 1 280 0
 993 009e 0120     		movs	r0, #1
 994 00a0 FFF7FEFF 		bl	readBuzzers
 995              	.LVL166:
 281:buzzerFuncs.c ****     while (buttonPushed != 4)
 996              		.loc 1 281 0
 997 00a4 0CE0     		b	.L59
 998              	.L61:
 282:buzzerFuncs.c ****     {
 283:buzzerFuncs.c ****         if (buttonPushed != 0 && buttonPushed != 4)
 999              		.loc 1 283 0
 1000 00a6 0028     		cmp	r0, #0
 1001 00a8 07D0     		beq	.L60
 1002              		.loc 1 283 0 is_stmt 0 discriminator 1
 1003 00aa 0428     		cmp	r0, #4
 1004 00ac 05D0     		beq	.L60
 284:buzzerFuncs.c ****         {
 285:buzzerFuncs.c ****             LCD_Char_1_ClearDisplay();
 1005              		.loc 1 285 0 is_stmt 1
 1006 00ae 0120     		movs	r0, #1
 1007              	.LVL167:
ARM GAS  C:\Users\User\AppData\Local\Temp\ccanVayv.s 			page 24


 1008 00b0 FFF7FEFF 		bl	LCD_Char_1_WriteControl
 1009              	.LVL168:
 286:buzzerFuncs.c ****             LCD_Char_1_PrintString("Test Buzzer 4");
 1010              		.loc 1 286 0
 1011 00b4 3948     		ldr	r0, .L74+12
 1012 00b6 FFF7FEFF 		bl	LCD_Char_1_PrintString
 1013              	.LVL169:
 1014              	.L60:
 287:buzzerFuncs.c ****         }
 288:buzzerFuncs.c ****         buttonPushed = readBuzzers(1);
 1015              		.loc 1 288 0
 1016 00ba 0120     		movs	r0, #1
 1017 00bc FFF7FEFF 		bl	readBuzzers
 1018              	.LVL170:
 1019              	.L59:
 281:buzzerFuncs.c ****     {
 1020              		.loc 1 281 0
 1021 00c0 0428     		cmp	r0, #4
 1022 00c2 F0D1     		bne	.L61
 289:buzzerFuncs.c ****     }
 290:buzzerFuncs.c ****     
 291:buzzerFuncs.c ****     LCD_Char_1_ClearDisplay();
 1023              		.loc 1 291 0
 1024 00c4 0338     		subs	r0, r0, #3
 1025              	.LVL171:
 1026 00c6 FFF7FEFF 		bl	LCD_Char_1_WriteControl
 1027              	.LVL172:
 292:buzzerFuncs.c ****     LCD_Char_1_PrintString("Test Buzzer 5");
 1028              		.loc 1 292 0
 1029 00ca 3548     		ldr	r0, .L74+16
 1030 00cc FFF7FEFF 		bl	LCD_Char_1_PrintString
 1031              	.LVL173:
 293:buzzerFuncs.c **** //    readBuzzers();
 294:buzzerFuncs.c ****     buttonPushed = readBuzzers(1);
 1032              		.loc 1 294 0
 1033 00d0 0120     		movs	r0, #1
 1034 00d2 FFF7FEFF 		bl	readBuzzers
 1035              	.LVL174:
 295:buzzerFuncs.c ****     while (buttonPushed != 5)
 1036              		.loc 1 295 0
 1037 00d6 0CE0     		b	.L62
 1038              	.L64:
 296:buzzerFuncs.c ****     {
 297:buzzerFuncs.c ****         if (buttonPushed != 0 && buttonPushed != 5)
 1039              		.loc 1 297 0
 1040 00d8 0028     		cmp	r0, #0
 1041 00da 07D0     		beq	.L63
 1042              		.loc 1 297 0 is_stmt 0 discriminator 1
 1043 00dc 0528     		cmp	r0, #5
 1044 00de 05D0     		beq	.L63
 298:buzzerFuncs.c ****         {
 299:buzzerFuncs.c ****             LCD_Char_1_ClearDisplay();
 1045              		.loc 1 299 0 is_stmt 1
 1046 00e0 0120     		movs	r0, #1
 1047              	.LVL175:
 1048 00e2 FFF7FEFF 		bl	LCD_Char_1_WriteControl
 1049              	.LVL176:
ARM GAS  C:\Users\User\AppData\Local\Temp\ccanVayv.s 			page 25


 300:buzzerFuncs.c ****             LCD_Char_1_PrintString("Test Buzzer 5");
 1050              		.loc 1 300 0
 1051 00e6 2E48     		ldr	r0, .L74+16
 1052 00e8 FFF7FEFF 		bl	LCD_Char_1_PrintString
 1053              	.LVL177:
 1054              	.L63:
 301:buzzerFuncs.c ****         }
 302:buzzerFuncs.c ****         buttonPushed = readBuzzers(5);
 1055              		.loc 1 302 0
 1056 00ec 0520     		movs	r0, #5
 1057 00ee FFF7FEFF 		bl	readBuzzers
 1058              	.LVL178:
 1059              	.L62:
 295:buzzerFuncs.c ****     {
 1060              		.loc 1 295 0
 1061 00f2 0528     		cmp	r0, #5
 1062 00f4 F0D1     		bne	.L64
 303:buzzerFuncs.c ****     }
 304:buzzerFuncs.c ****     
 305:buzzerFuncs.c ****     LCD_Char_1_ClearDisplay();
 1063              		.loc 1 305 0
 1064 00f6 0438     		subs	r0, r0, #4
 1065              	.LVL179:
 1066 00f8 FFF7FEFF 		bl	LCD_Char_1_WriteControl
 1067              	.LVL180:
 306:buzzerFuncs.c ****     LCD_Char_1_PrintString("Test Buzzer 6");
 1068              		.loc 1 306 0
 1069 00fc 2948     		ldr	r0, .L74+20
 1070 00fe FFF7FEFF 		bl	LCD_Char_1_PrintString
 1071              	.LVL181:
 307:buzzerFuncs.c **** //    readBuzzers();
 308:buzzerFuncs.c ****     buttonPushed = readBuzzers(1);
 1072              		.loc 1 308 0
 1073 0102 0120     		movs	r0, #1
 1074 0104 FFF7FEFF 		bl	readBuzzers
 1075              	.LVL182:
 309:buzzerFuncs.c ****     while (buttonPushed != 6)
 1076              		.loc 1 309 0
 1077 0108 0CE0     		b	.L65
 1078              	.L67:
 310:buzzerFuncs.c ****     {
 311:buzzerFuncs.c ****         if (buttonPushed != 0 && buttonPushed != 6)
 1079              		.loc 1 311 0
 1080 010a 0028     		cmp	r0, #0
 1081 010c 07D0     		beq	.L66
 1082              		.loc 1 311 0 is_stmt 0 discriminator 1
 1083 010e 0628     		cmp	r0, #6
 1084 0110 05D0     		beq	.L66
 312:buzzerFuncs.c ****         {
 313:buzzerFuncs.c ****             LCD_Char_1_ClearDisplay();
 1085              		.loc 1 313 0 is_stmt 1
 1086 0112 0120     		movs	r0, #1
 1087              	.LVL183:
 1088 0114 FFF7FEFF 		bl	LCD_Char_1_WriteControl
 1089              	.LVL184:
 314:buzzerFuncs.c ****             LCD_Char_1_PrintString("Test Buzzer 6");
 1090              		.loc 1 314 0
ARM GAS  C:\Users\User\AppData\Local\Temp\ccanVayv.s 			page 26


 1091 0118 2248     		ldr	r0, .L74+20
 1092 011a FFF7FEFF 		bl	LCD_Char_1_PrintString
 1093              	.LVL185:
 1094              	.L66:
 315:buzzerFuncs.c ****         }
 316:buzzerFuncs.c ****         buttonPushed = readBuzzers(1);
 1095              		.loc 1 316 0
 1096 011e 0120     		movs	r0, #1
 1097 0120 FFF7FEFF 		bl	readBuzzers
 1098              	.LVL186:
 1099              	.L65:
 309:buzzerFuncs.c ****     {
 1100              		.loc 1 309 0
 1101 0124 0628     		cmp	r0, #6
 1102 0126 F0D1     		bne	.L67
 317:buzzerFuncs.c ****     }
 318:buzzerFuncs.c ****     
 319:buzzerFuncs.c ****     LCD_Char_1_ClearDisplay();
 1103              		.loc 1 319 0
 1104 0128 0538     		subs	r0, r0, #5
 1105              	.LVL187:
 1106 012a FFF7FEFF 		bl	LCD_Char_1_WriteControl
 1107              	.LVL188:
 320:buzzerFuncs.c ****     LCD_Char_1_PrintString("Test Buzzer 7");
 1108              		.loc 1 320 0
 1109 012e 1E48     		ldr	r0, .L74+24
 1110 0130 FFF7FEFF 		bl	LCD_Char_1_PrintString
 1111              	.LVL189:
 321:buzzerFuncs.c ****     buttonPushed = readBuzzers(1);
 1112              		.loc 1 321 0
 1113 0134 0120     		movs	r0, #1
 1114 0136 FFF7FEFF 		bl	readBuzzers
 1115              	.LVL190:
 322:buzzerFuncs.c ****     while (buttonPushed != 7)
 1116              		.loc 1 322 0
 1117 013a 0CE0     		b	.L68
 1118              	.L70:
 323:buzzerFuncs.c ****     {
 324:buzzerFuncs.c ****         if (buttonPushed != 0 && buttonPushed != 7)
 1119              		.loc 1 324 0
 1120 013c 0028     		cmp	r0, #0
 1121 013e 07D0     		beq	.L69
 1122              		.loc 1 324 0 is_stmt 0 discriminator 1
 1123 0140 0728     		cmp	r0, #7
 1124 0142 05D0     		beq	.L69
 325:buzzerFuncs.c ****         {
 326:buzzerFuncs.c ****             LCD_Char_1_ClearDisplay();
 1125              		.loc 1 326 0 is_stmt 1
 1126 0144 0120     		movs	r0, #1
 1127              	.LVL191:
 1128 0146 FFF7FEFF 		bl	LCD_Char_1_WriteControl
 1129              	.LVL192:
 327:buzzerFuncs.c ****             LCD_Char_1_PrintString("Test Buzzer 7");
 1130              		.loc 1 327 0
 1131 014a 1748     		ldr	r0, .L74+24
 1132 014c FFF7FEFF 		bl	LCD_Char_1_PrintString
 1133              	.LVL193:
ARM GAS  C:\Users\User\AppData\Local\Temp\ccanVayv.s 			page 27


 1134              	.L69:
 328:buzzerFuncs.c ****         }
 329:buzzerFuncs.c ****         buttonPushed = readBuzzers(1);
 1135              		.loc 1 329 0
 1136 0150 0120     		movs	r0, #1
 1137 0152 FFF7FEFF 		bl	readBuzzers
 1138              	.LVL194:
 1139              	.L68:
 322:buzzerFuncs.c ****     {
 1140              		.loc 1 322 0
 1141 0156 0728     		cmp	r0, #7
 1142 0158 F0D1     		bne	.L70
 330:buzzerFuncs.c ****     }
 331:buzzerFuncs.c ****     
 332:buzzerFuncs.c ****     LCD_Char_1_ClearDisplay();
 1143              		.loc 1 332 0
 1144 015a 0638     		subs	r0, r0, #6
 1145              	.LVL195:
 1146 015c FFF7FEFF 		bl	LCD_Char_1_WriteControl
 1147              	.LVL196:
 333:buzzerFuncs.c ****     LCD_Char_1_PrintString("Test Buzzer 8");
 1148              		.loc 1 333 0
 1149 0160 1248     		ldr	r0, .L74+28
 1150 0162 FFF7FEFF 		bl	LCD_Char_1_PrintString
 1151              	.LVL197:
 334:buzzerFuncs.c ****     buttonPushed = readBuzzers(1);
 1152              		.loc 1 334 0
 1153 0166 0120     		movs	r0, #1
 1154 0168 FFF7FEFF 		bl	readBuzzers
 1155              	.LVL198:
 335:buzzerFuncs.c ****     while (buttonPushed != 8)
 1156              		.loc 1 335 0
 1157 016c 0CE0     		b	.L71
 1158              	.L73:
 336:buzzerFuncs.c ****     {
 337:buzzerFuncs.c ****         if (buttonPushed != 0 && buttonPushed != 8)
 1159              		.loc 1 337 0
 1160 016e 0028     		cmp	r0, #0
 1161 0170 07D0     		beq	.L72
 1162              		.loc 1 337 0 is_stmt 0 discriminator 1
 1163 0172 0828     		cmp	r0, #8
 1164 0174 05D0     		beq	.L72
 338:buzzerFuncs.c ****         {
 339:buzzerFuncs.c ****             LCD_Char_1_ClearDisplay();
 1165              		.loc 1 339 0 is_stmt 1
 1166 0176 0120     		movs	r0, #1
 1167              	.LVL199:
 1168 0178 FFF7FEFF 		bl	LCD_Char_1_WriteControl
 1169              	.LVL200:
 340:buzzerFuncs.c ****             LCD_Char_1_PrintString("Test Buzzer 8");
 1170              		.loc 1 340 0
 1171 017c 0B48     		ldr	r0, .L74+28
 1172 017e FFF7FEFF 		bl	LCD_Char_1_PrintString
 1173              	.LVL201:
 1174              	.L72:
 341:buzzerFuncs.c ****         }
 342:buzzerFuncs.c ****         buttonPushed = readBuzzers(1);
ARM GAS  C:\Users\User\AppData\Local\Temp\ccanVayv.s 			page 28


 1175              		.loc 1 342 0
 1176 0182 0120     		movs	r0, #1
 1177 0184 FFF7FEFF 		bl	readBuzzers
 1178              	.LVL202:
 1179              	.L71:
 335:buzzerFuncs.c ****     {
 1180              		.loc 1 335 0
 1181 0188 0828     		cmp	r0, #8
 1182 018a F0D1     		bne	.L73
 343:buzzerFuncs.c ****     }   
 344:buzzerFuncs.c **** }
 1183              		.loc 1 344 0
 1184              		@ sp needed
 1185 018c 10BD     		pop	{r4, pc}
 1186              	.L75:
 1187 018e C046     		.align	2
 1188              	.L74:
 1189 0190 A0000000 		.word	.LC23
 1190 0194 B0000000 		.word	.LC25
 1191 0198 C0000000 		.word	.LC27
 1192 019c D0000000 		.word	.LC29
 1193 01a0 E0000000 		.word	.LC31
 1194 01a4 F0000000 		.word	.LC33
 1195 01a8 00010000 		.word	.LC35
 1196 01ac 10010000 		.word	.LC37
 1197              		.cfi_endproc
 1198              	.LFE33:
 1199              		.size	testBuzzers, .-testBuzzers
 1200              		.global	buttonOn
 1201              		.section	.rodata.str1.4,"aMS",%progbits,1
 1202              		.align	2
 1203              	.LC1:
 1204 0000 5465616D 		.ascii	"Team A\000"
 1204      204100
 1205 0007 00       		.space	1
 1206              	.LC3:
 1207 0008 506C6179 		.ascii	"Player 1 Buzzed\000"
 1207      65722031 
 1207      2042757A 
 1207      7A656400 
 1208              	.LC5:
 1209 0018 506C6179 		.ascii	"Player 2 Buzzed\000"
 1209      65722032 
 1209      2042757A 
 1209      7A656400 
 1210              	.LC7:
 1211 0028 506C6179 		.ascii	"Player 3 Buzzed\000"
 1211      65722033 
 1211      2042757A 
 1211      7A656400 
 1212              	.LC9:
 1213 0038 506C6179 		.ascii	"Player 4 Buzzed\000"
 1213      65722034 
 1213      2042757A 
 1213      7A656400 
 1214              	.LC11:
 1215 0048 5465616D 		.ascii	"Team B\000"
ARM GAS  C:\Users\User\AppData\Local\Temp\ccanVayv.s 			page 29


 1215      204200
 1216 004f 00       		.space	1
 1217              	.LC13:
 1218 0050 506C6179 		.ascii	"Player 5 Buzzed\000"
 1218      65722035 
 1218      2042757A 
 1218      7A656400 
 1219              	.LC15:
 1220 0060 506C6179 		.ascii	"Player 6 Buzzed\000"
 1220      65722036 
 1220      2042757A 
 1220      7A656400 
 1221              	.LC17:
 1222 0070 506C6179 		.ascii	"Player 7 Buzzed\000"
 1222      65722037 
 1222      2042757A 
 1222      7A656400 
 1223              	.LC19:
 1224 0080 506C6179 		.ascii	"Player 8 Buzzed\000"
 1224      65722038 
 1224      2042757A 
 1224      7A656400 
 1225              	.LC21:
 1226 0090 41776169 		.ascii	"Awaiting Answer\000"
 1226      74696E67 
 1226      20416E73 
 1226      77657200 
 1227              	.LC23:
 1228 00a0 54657374 		.ascii	"Test Buzzer 1\000"
 1228      2042757A 
 1228      7A657220 
 1228      3100
 1229 00ae 0000     		.space	2
 1230              	.LC25:
 1231 00b0 54657374 		.ascii	"Test Buzzer 2\000"
 1231      2042757A 
 1231      7A657220 
 1231      3200
 1232 00be 0000     		.space	2
 1233              	.LC27:
 1234 00c0 54657374 		.ascii	"Test Buzzer 3\000"
 1234      2042757A 
 1234      7A657220 
 1234      3300
 1235 00ce 0000     		.space	2
 1236              	.LC29:
 1237 00d0 54657374 		.ascii	"Test Buzzer 4\000"
 1237      2042757A 
 1237      7A657220 
 1237      3400
 1238 00de 0000     		.space	2
 1239              	.LC31:
 1240 00e0 54657374 		.ascii	"Test Buzzer 5\000"
 1240      2042757A 
 1240      7A657220 
 1240      3500
 1241 00ee 0000     		.space	2
ARM GAS  C:\Users\User\AppData\Local\Temp\ccanVayv.s 			page 30


 1242              	.LC33:
 1243 00f0 54657374 		.ascii	"Test Buzzer 6\000"
 1243      2042757A 
 1243      7A657220 
 1243      3600
 1244 00fe 0000     		.space	2
 1245              	.LC35:
 1246 0100 54657374 		.ascii	"Test Buzzer 7\000"
 1246      2042757A 
 1246      7A657220 
 1246      3700
 1247 010e 0000     		.space	2
 1248              	.LC37:
 1249 0110 54657374 		.ascii	"Test Buzzer 8\000"
 1249      2042757A 
 1249      7A657220 
 1249      3800
 1250              		.bss
 1251              		.align	2
 1252              		.set	.LANCHOR0,. + 0
 1253              		.type	buttonOn, %object
 1254              		.size	buttonOn, 4
 1255              	buttonOn:
 1256 0000 00000000 		.space	4
 1257              		.text
 1258              	.Letext0:
 1259              		.file 2 "Generated_Source\\PSoC4/Reset.h"
 1260              		.file 3 "Generated_Source\\PSoC4/Buzzer_1.h"
 1261              		.file 4 "Generated_Source\\PSoC4/CyLib.h"
 1262              		.file 5 "Generated_Source\\PSoC4/Buzzer_2.h"
 1263              		.file 6 "Generated_Source\\PSoC4/Button_1.h"
 1264              		.file 7 "Generated_Source\\PSoC4/LCD_Char_1.h"
 1265              		.file 8 "Generated_Source\\PSoC4/LED_1.h"
 1266              		.file 9 "Generated_Source\\PSoC4/Button_2.h"
 1267              		.file 10 "Generated_Source\\PSoC4/LED_2.h"
 1268              		.file 11 "Generated_Source\\PSoC4/Button_3.h"
 1269              		.file 12 "Generated_Source\\PSoC4/LED_3.h"
 1270              		.file 13 "Generated_Source\\PSoC4/Button_4.h"
 1271              		.file 14 "Generated_Source\\PSoC4/LED_4.h"
 1272              		.file 15 "Generated_Source\\PSoC4/Button_5.h"
 1273              		.file 16 "Generated_Source\\PSoC4/LED_5.h"
 1274              		.file 17 "Generated_Source\\PSoC4/Button_6.h"
 1275              		.file 18 "Generated_Source\\PSoC4/LED_6.h"
 1276              		.file 19 "Generated_Source\\PSoC4/Button_7.h"
 1277              		.file 20 "Generated_Source\\PSoC4/LED_7.h"
 1278              		.file 21 "Generated_Source\\PSoC4/Button_8.h"
 1279              		.file 22 "Generated_Source\\PSoC4/LED_8.h"